target datalayout = "e-m:e-p270:32:32-p271:32:32-p272:64:64-i64:64-i128:128-f80:128-n8:16:32:64-S128"
target triple = "x86_64-pc-linux-gnu"

%struct.LinearAllocator = type { %struct.dtTileCacheAlloc, ptr, i64, i64, i64 }
%struct.dtTileCacheAlloc = type { ptr }

@_ZTV15LinearAllocator = dso_local unnamed_addr constant { [7 x ptr] } { [7 x ptr] [ptr null, ptr @_ZTI15LinearAllocator, ptr @_ZN15LinearAllocatorD1Ev, ptr @_ZN15LinearAllocatorD0Ev, ptr @_ZN15LinearAllocator5resetEv, ptr @_ZN15LinearAllocator5allocEm, ptr @_ZN15LinearAllocator4freeEPv] }, align 8

; Function Attrs: mustprogress nounwind uwtable
define dso_local void @_ZN15LinearAllocatorD2Ev(ptr noundef nonnull align 8 dereferenceable(40) %0) unnamed_addr #0 align 2 personality ptr @__gxx_personality_v0 {
  %2 = alloca ptr, align 8
  store ptr %0, ptr %2, align 8
  %3 = load ptr, ptr %2, align 8
  store ptr getelementptr inbounds ({ [7 x ptr] }, ptr @_ZTV15LinearAllocator, i32 0, i32 0, i32 2), ptr %3, align 8
  %4 = getelementptr inbounds %struct.LinearAllocator, ptr %3, i32 0, i32 1
  %5 = load ptr, ptr %4, align 8
  invoke void @_Z6dtFreePv(ptr noundef %5)
          to label %6 unwind label %7

6:                                                ; preds = %1
  call void @_ZN16dtTileCacheAllocD2Ev(ptr noundef nonnull align 8 dereferenceable(8) %3) #10
  ret void

7:                                                ; preds = %1
  %8 = landingpad { ptr, i32 }
          catch ptr null
  %9 = extractvalue { ptr, i32 } %8, 0
  call void @__clang_call_terminate(ptr %9) #12
  unreachable
}