; Function Attrs: mustprogress nounwind uwtable
define dso_local void @_ZN15LinearAllocatorD2Ev(ptr noundef nonnull align 8 dereferenceable(40) %0) unnamed_addr #0 align 2 personality ptr @__gxx_personality_v0 {
  store ptr getelementptr inbounds ({ [7 x ptr] }, ptr @_ZTV15LinearAllocator, i64 0, i32 0, i64 2), ptr %0, align 8
  %2 = getelementptr inbounds i8, ptr %0, i64 8
  %3 = load ptr, ptr %2, align 8
  invoke void @_Z6dtFreePv(ptr noundef %3)
          to label %4 unwind label %5

4:                                                ; preds = %1
  tail call void @_ZN16dtTileCacheAllocD2Ev(ptr noundef nonnull align 8 dereferenceable(8) %0) #14
  ret void

5:                                                ; preds = %1
  %6 = landingpad { ptr, i32 }
          catch ptr null
  %7 = extractvalue { ptr, i32 } %6, 0
  tail call void @__clang_call_terminate(ptr %7) #16
  unreachable
}